target datalayout = "e-m:e-p270:32:32-p271:32:32-p272:64:64-i64:64-i128:128-f80:128-n8:16:32:64-S128"
target triple = "x86_64-pc-linux-gnu"

@libctx = internal global ptr null, align 8
@.str.14 = private unnamed_addr constant [30 x i8] c"../openssl/test/quicapitest.c\00", align 1
@cert = internal global ptr null, align 8
@privkey = internal global ptr null, align 8
@.str.62 = private unnamed_addr constant [5 x i8] c"cctx\00", align 1
@.str.67 = private unnamed_addr constant [49 x i8] c"qtest_create_quic_connection(qtserv, clientquic)\00", align 1
@.str.70 = private unnamed_addr constant [2 x i8] c"0\00", align 1
@.str.119 = private unnamed_addr constant [11 x i8] c"clientquic\00", align 1
@.str.134 = private unnamed_addr constant [117 x i8] c"qtest_create_quic_objects(libctx, cctx, NULL, cert, privkey, QTEST_FLAG_FAKE_TIME, &qtserv, &clientquic, NULL, NULL)\00", align 1
@.str.224 = private unnamed_addr constant [2 x i8] c"2\00", align 1
@.str.267 = private unnamed_addr constant [25 x i8] c"SSL_shutdown(clientquic)\00", align 1
@new_called = internal global i32 0, align 4
@cbssl = internal global ptr null, align 8
@.str.342 = private unnamed_addr constant [30 x i8] c"SSL_handle_events(clientquic)\00", align 1
@.str.343 = private unnamed_addr constant [11 x i8] c"new_called\00", align 1
@.str.344 = private unnamed_addr constant [6 x i8] c"cbssl\00", align 1

; Function Attrs: nounwind uwtable
define internal i32 @test_session_cb() #0 {
  %1 = alloca ptr, align 8
  %2 = alloca ptr, align 8
  %3 = alloca ptr, align 8
  %4 = alloca i32, align 4
  call void @llvm.lifetime.start.p0(i64 8, ptr %1) #8
  %5 = load ptr, ptr @libctx, align 8, !tbaa !4
  %6 = call ptr @OSSL_QUIC_client_method()
  %7 = call ptr @SSL_CTX_new_ex(ptr noundef %5, ptr noundef null, ptr noundef %6)
  store ptr %7, ptr %1, align 8, !tbaa !15
  call void @llvm.lifetime.start.p0(i64 8, ptr %2) #8
  store ptr null, ptr %2, align 8, !tbaa !17
  call void @llvm.lifetime.start.p0(i64 8, ptr %3) #8
  store ptr null, ptr %3, align 8, !tbaa !19
  call void @llvm.lifetime.start.p0(i64 4, ptr %4) #8
  store i32 0, ptr %4, align 4, !tbaa !13
  %8 = load ptr, ptr %1, align 8, !tbaa !15
  %9 = call i32 @test_ptr(ptr noundef @.str.14, i32 noundef 2348, ptr noundef @.str.62, ptr noundef %8)
  %10 = icmp ne i32 %9, 0
  br i1 %10, label %12, label %11

11:                                               ; preds = %0
  br label %60

12:                                               ; preds = %0
  store i32 0, ptr @new_called, align 4, !tbaa !13
  store ptr null, ptr @cbssl, align 8, !tbaa !17
  %13 = load ptr, ptr %1, align 8, !tbaa !15
  call void @SSL_CTX_sess_set_new_cb(ptr noundef %13, ptr noundef @new_session_cb)
  %14 = load ptr, ptr %1, align 8, !tbaa !15
  %15 = call i64 @SSL_CTX_ctrl(ptr noundef %14, i32 noundef 44, i64 noundef 1, ptr noundef null)
  %16 = load ptr, ptr @libctx, align 8, !tbaa !4
  %17 = load ptr, ptr %1, align 8, !tbaa !15
  %18 = load ptr, ptr @cert, align 8, !tbaa !11
  %19 = load ptr, ptr @privkey, align 8, !tbaa !11
  %20 = call i32 @qtest_create_quic_objects(ptr noundef %16, ptr noundef %17, ptr noundef null, ptr noundef %18, ptr noundef %19, i32 noundef 2, ptr noundef %3, ptr noundef %2, ptr noundef null, ptr noundef null)
  %21 = icmp ne i32 %20, 0
  %22 = zext i1 %21 to i32
  %23 = call i32 @test_true(ptr noundef @.str.14, i32 noundef 2360, ptr noundef @.str.134, i32 noundef %22)
  %24 = icmp ne i32 %23, 0
  br i1 %24, label %26, label %25

25:                                               ; preds = %12
  br label %60

26:                                               ; preds = %12
  %27 = load ptr, ptr %3, align 8, !tbaa !19
  %28 = load ptr, ptr %2, align 8, !tbaa !17
  %29 = call i32 @qtest_create_quic_connection(ptr noundef %27, ptr noundef %28)
  %30 = icmp ne i32 %29, 0
  %31 = zext i1 %30 to i32
  %32 = call i32 @test_true(ptr noundef @.str.14, i32 noundef 2363, ptr noundef @.str.67, i32 noundef %31)
  %33 = icmp ne i32 %32, 0
  br i1 %33, label %35, label %34

34:                                               ; preds = %26
  br label %60

35:                                               ; preds = %26
  %36 = load ptr, ptr %2, align 8, !tbaa !17
  %37 = call i32 @SSL_handle_events(ptr noundef %36)
  %38 = icmp ne i32 %37, 0
  %39 = zext i1 %38 to i32
  %40 = call i32 @test_true(ptr noundef @.str.14, i32 noundef 2367, ptr noundef @.str.342, i32 noundef %39)
  %41 = icmp ne i32 %40, 0
  br i1 %41, label %43, label %42

42:                                               ; preds = %35
  br label %60

43:                                               ; preds = %35
  %44 = load ptr, ptr %2, align 8, !tbaa !17
  %45 = call i32 @SSL_shutdown(ptr noundef %44)
  %46 = call i32 @test_int_eq(ptr noundef @.str.14, i32 noundef 2370, ptr noundef @.str.267, ptr noundef @.str.70, i32 noundef %45, i32 noundef 0)
  %47 = icmp ne i32 %46, 0
  br i1 %47, label %49, label %48

48:                                               ; preds = %43
  br label %60

49:                                               ; preds = %43
  %50 = load i32, ptr @new_called, align 4, !tbaa !13
  %51 = call i32 @test_int_eq(ptr noundef @.str.14, i32 noundef 2377, ptr noundef @.str.343, ptr noundef @.str.224, i32 noundef %50, i32 noundef 2)
  %52 = icmp ne i32 %51, 0
  br i1 %52, label %53, label %58

53:                                               ; preds = %49
  %54 = load ptr, ptr %2, align 8, !tbaa !17
  %55 = load ptr, ptr @cbssl, align 8, !tbaa !17
  %56 = call i32 @test_ptr_eq(ptr noundef @.str.14, i32 noundef 2378, ptr noundef @.str.119, ptr noundef @.str.344, ptr noundef %54, ptr noundef %55)
  %57 = icmp ne i32 %56, 0
  br i1 %57, label %59, label %58

58:                                               ; preds = %53, %49
  br label %60

59:                                               ; preds = %53
  store i32 1, ptr %4, align 4, !tbaa !13
  br label %60

60:                                               ; preds = %59, %58, %48, %42, %34, %25, %11
  store ptr null, ptr @cbssl, align 8, !tbaa !17
  %61 = load ptr, ptr %3, align 8, !tbaa !19
  call void @ossl_quic_tserver_free(ptr noundef %61)
  %62 = load ptr, ptr %2, align 8, !tbaa !17
  call void @SSL_free(ptr noundef %62)
  %63 = load ptr, ptr %1, align 8, !tbaa !15
  call void @SSL_CTX_free(ptr noundef %63)
  %64 = load i32, ptr %4, align 4, !tbaa !13
  call void @llvm.lifetime.end.p0(i64 4, ptr %4) #8
  call void @llvm.lifetime.end.p0(i64 8, ptr %3) #8
  call void @llvm.lifetime.end.p0(i64 8, ptr %2) #8
  call void @llvm.lifetime.end.p0(i64 8, ptr %1) #8
  ret i32 %64
}