; Function Attrs: nounwind uwtable
define internal range(i32 0, 2) i32 @test_session_cb() #1 {
  %1 = alloca ptr, align 8
  %2 = alloca ptr, align 8
  %3 = load ptr, ptr @libctx, align 8, !tbaa !4
  %4 = tail call ptr @OSSL_QUIC_client_method() #10
  %5 = tail call ptr @SSL_CTX_new_ex(ptr noundef %3, ptr noundef null, ptr noundef %4) #10
  call void @llvm.lifetime.start.p0(i64 8, ptr nonnull %1) #10
  store ptr null, ptr %1, align 8, !tbaa !13
  call void @llvm.lifetime.start.p0(i64 8, ptr nonnull %2) #10
  store ptr null, ptr %2, align 8, !tbaa !15
  %6 = tail call i32 @test_ptr(ptr noundef nonnull @.str.14, i32 noundef 2348, ptr noundef nonnull @.str.62, ptr noundef %5) #10
  %.not = icmp eq i32 %6, 0
  br i1 %.not, label %40, label %7

7:                                                ; preds = %0
  store i32 0, ptr @new_called, align 4, !tbaa !19
  store ptr null, ptr @cbssl, align 8, !tbaa !13
  tail call void @SSL_CTX_sess_set_new_cb(ptr noundef %5, ptr noundef nonnull @new_session_cb) #10
  %8 = tail call i64 @SSL_CTX_ctrl(ptr noundef %5, i32 noundef 44, i64 noundef 1, ptr noundef null) #10
  %9 = load ptr, ptr @libctx, align 8, !tbaa !4
  %10 = load ptr, ptr @cert, align 8, !tbaa !11
  %11 = load ptr, ptr @privkey, align 8, !tbaa !11
  %12 = call i32 @qtest_create_quic_objects(ptr noundef %9, ptr noundef %5, ptr noundef null, ptr noundef %10, ptr noundef %11, i32 noundef 2, ptr noundef nonnull %2, ptr noundef nonnull %1, ptr noundef null, ptr noundef null) #10
  %13 = icmp ne i32 %12, 0
  %14 = zext i1 %13 to i32
  %15 = call i32 @test_true(ptr noundef nonnull @.str.14, i32 noundef 2360, ptr noundef nonnull @.str.134, i32 noundef %14) #10
  %.not5 = icmp eq i32 %15, 0
  br i1 %.not5, label %40, label %16

16:                                               ; preds = %7
  %17 = load ptr, ptr %2, align 8, !tbaa !15
  %18 = load ptr, ptr %1, align 8, !tbaa !13
  %19 = call i32 @qtest_create_quic_connection(ptr noundef %17, ptr noundef %18) #10
  %20 = icmp ne i32 %19, 0
  %21 = zext i1 %20 to i32
  %22 = call i32 @test_true(ptr noundef nonnull @.str.14, i32 noundef 2363, ptr noundef nonnull @.str.67, i32 noundef %21) #10
  %.not6 = icmp eq i32 %22, 0
  br i1 %.not6, label %40, label %23

23:                                               ; preds = %16
  %24 = load ptr, ptr %1, align 8, !tbaa !13
  %25 = call i32 @SSL_handle_events(ptr noundef %24) #10
  %26 = icmp ne i32 %25, 0
  %27 = zext i1 %26 to i32
  %28 = call i32 @test_true(ptr noundef nonnull @.str.14, i32 noundef 2367, ptr noundef nonnull @.str.342, i32 noundef %27) #10
  %.not7 = icmp eq i32 %28, 0
  br i1 %.not7, label %40, label %29

29:                                               ; preds = %23
  %30 = load ptr, ptr %1, align 8, !tbaa !13
  %31 = call i32 @SSL_shutdown(ptr noundef %30) #10
  %32 = call i32 @test_int_eq(ptr noundef nonnull @.str.14, i32 noundef 2370, ptr noundef nonnull @.str.267, ptr noundef nonnull @.str.70, i32 noundef %31, i32 noundef 0) #10
  %.not8 = icmp eq i32 %32, 0
  br i1 %.not8, label %40, label %33

33:                                               ; preds = %29
  %34 = load i32, ptr @new_called, align 4, !tbaa !19
  %35 = call i32 @test_int_eq(ptr noundef nonnull @.str.14, i32 noundef 2377, ptr noundef nonnull @.str.343, ptr noundef nonnull @.str.224, i32 noundef %34, i32 noundef 2) #10
  %.not9 = icmp eq i32 %35, 0
  br i1 %.not9, label %40, label %36

36:                                               ; preds = %33
  %37 = load ptr, ptr %1, align 8, !tbaa !13
  %38 = load ptr, ptr @cbssl, align 8, !tbaa !13
  %39 = call i32 @test_ptr_eq(ptr noundef nonnull @.str.14, i32 noundef 2378, ptr noundef nonnull @.str.119, ptr noundef nonnull @.str.344, ptr noundef %37, ptr noundef %38) #10
  %.not10 = icmp ne i32 %39, 0
  %spec.select = zext i1 %.not10 to i32
  br label %40

40:                                               ; preds = %36, %33, %29, %23, %16, %7, %0
  %.0 = phi i32 [ 0, %33 ], [ 0, %29 ], [ 0, %23 ], [ 0, %16 ], [ 0, %7 ], [ 0, %0 ], [ %spec.select, %36 ]
  store ptr null, ptr @cbssl, align 8, !tbaa !13
  %41 = load ptr, ptr %2, align 8, !tbaa !15
  call void @ossl_quic_tserver_free(ptr noundef %41) #10
  %42 = load ptr, ptr %1, align 8, !tbaa !13
  call void @SSL_free(ptr noundef %42) #10
  call void @SSL_CTX_free(ptr noundef %5) #10
  call void @llvm.lifetime.end.p0(i64 8, ptr nonnull %2) #10
  call void @llvm.lifetime.end.p0(i64 8, ptr nonnull %1) #10
  ret i32 %.0
}